; Function Attrs: mustprogress uwtable
define internal noundef i32 @_ZL5debugv() #3 personality ptr @__gxx_personality_v0 {
  %1 = alloca %"class.std::__cxx11::basic_string", align 8
  %2 = alloca %"class.std::allocator", align 1
  %3 = alloca %"class.std::__cxx11::basic_string", align 8
  %4 = alloca %"class.std::allocator", align 1
  %5 = load i32, ptr @_ZZL5debugvE5level, align 4
  %6 = icmp slt i32 %5, 0
  br i1 %6, label %7, label %39

7:                                                ; preds = %0
  call void @_ZNSaIcEC1Ev(ptr noundef nonnull align 1 dereferenceable(1) %2) #17
  %8 = invoke noundef ptr @_ZNSt7__cxx1112basic_stringIcSt11char_traitsIcESaIcEE13_M_local_dataEv(ptr noundef nonnull align 8 dereferenceable(32) %1)
          to label %.noexc unwind label %29

.noexc:                                           ; preds = %7
  invoke void @_ZNSt7__cxx1112basic_stringIcSt11char_traitsIcESaIcEE12_Alloc_hiderC1EPcRKS3_(ptr noundef nonnull align 8 dereferenceable(8) %1, ptr noundef %8, ptr noundef nonnull align 1 dereferenceable(1) %2)
          to label %.noexc18 unwind label %29

.noexc18:                                         ; preds = %.noexc
  invoke void @_ZNSt7__cxx1112basic_stringIcSt11char_traitsIcESaIcEE12_M_constructIPKcEEvT_S8_St20forward_iterator_tag(ptr noundef nonnull align 8 dereferenceable(32) %1, ptr noundef nonnull @.str.4, ptr noundef nonnull @.str.4)
          to label %_ZNSt7__cxx1112basic_stringIcSt11char_traitsIcESaIcEEC2IS3_EEPKcRKS3_.exit unwind label %9

9:                                                ; preds = %.noexc18
  %10 = landingpad { ptr, i32 }
          cleanup
  call void @_ZNSaIcED2Ev(ptr noundef nonnull align 1 dereferenceable(1) %1) #17
  br label %.body

_ZNSt7__cxx1112basic_stringIcSt11char_traitsIcESaIcEEC2IS3_EEPKcRKS3_.exit: ; preds = %.noexc18
  call void @_ZNSaIcED1Ev(ptr noundef nonnull align 1 dereferenceable(1) %2) #17
  %11 = invoke noundef nonnull align 1 dereferenceable(1) ptr @_ZNSt7__cxx1112basic_stringIcSt11char_traitsIcESaIcEEixEm(ptr noundef nonnull align 8 dereferenceable(32) %1, i64 noundef 0)
          to label %12 unwind label %31

12:                                               ; preds = %_ZNSt7__cxx1112basic_stringIcSt11char_traitsIcESaIcEEC2IS3_EEPKcRKS3_.exit
  %13 = load i8, ptr %11, align 1
  %14 = sext i8 %13 to i32
  %15 = call i32 @tolower(i32 noundef %14) #19
  %16 = invoke noundef nonnull align 1 dereferenceable(1) ptr @_ZNSt7__cxx1112basic_stringIcSt11char_traitsIcESaIcEEixEm(ptr noundef nonnull align 8 dereferenceable(32) %1, i64 noundef 0)
          to label %17 unwind label %31

17:                                               ; preds = %12
  %18 = trunc i32 %15 to i8
  store i8 %18, ptr %16, align 1
  %19 = invoke noundef i32 @_ZNK9V3Options10debugLevelERKNSt7__cxx1112basic_stringIcSt11char_traitsIcESaIcEEE(ptr noundef nonnull align 8 dereferenceable(1560) getelementptr inbounds (%class.V3Global, ptr @v3Global, i64 0, i32 22), ptr noundef nonnull align 8 dereferenceable(32) %1)
          to label %20 unwind label %31

20:                                               ; preds = %17
  call void @_ZNSaIcEC1Ev(ptr noundef nonnull align 1 dereferenceable(1) %4) #17
  %21 = invoke noundef ptr @_ZNSt7__cxx1112basic_stringIcSt11char_traitsIcESaIcEE13_M_local_dataEv(ptr noundef nonnull align 8 dereferenceable(32) %3)
          to label %.noexc19 unwind label %33

.noexc19:                                         ; preds = %20
  invoke void @_ZNSt7__cxx1112basic_stringIcSt11char_traitsIcESaIcEE12_Alloc_hiderC1EPcRKS3_(ptr noundef nonnull align 8 dereferenceable(8) %3, ptr noundef %21, ptr noundef nonnull align 1 dereferenceable(1) %4)
          to label %.noexc20 unwind label %33

.noexc20:                                         ; preds = %.noexc19
  invoke void @_ZNSt7__cxx1112basic_stringIcSt11char_traitsIcESaIcEE12_M_constructIPKcEEvT_S8_St20forward_iterator_tag(ptr noundef nonnull align 8 dereferenceable(32) %3, ptr noundef nonnull @.str.1, ptr noundef nonnull getelementptr inbounds ([116 x i8], ptr @.str.1, i64 0, i64 115))
          to label %_ZNSt7__cxx1112basic_stringIcSt11char_traitsIcESaIcEEC2IS3_EEPKcRKS3_.exit23 unwind label %22

22:                                               ; preds = %.noexc20
  %23 = landingpad { ptr, i32 }
          cleanup
  call void @_ZNSaIcED2Ev(ptr noundef nonnull align 1 dereferenceable(1) %3) #17
  br label %.body21

_ZNSt7__cxx1112basic_stringIcSt11char_traitsIcESaIcEEC2IS3_EEPKcRKS3_.exit23: ; preds = %.noexc20
  %24 = invoke noundef i32 @_ZNK9V3Options13debugSrcLevelERKNSt7__cxx1112basic_stringIcSt11char_traitsIcESaIcEEE(ptr noundef nonnull align 8 dereferenceable(1560) getelementptr inbounds (%class.V3Global, ptr @v3Global, i64 0, i32 22), ptr noundef nonnull align 8 dereferenceable(32) %3)
          to label %25 unwind label %35

25:                                               ; preds = %_ZNSt7__cxx1112basic_stringIcSt11char_traitsIcESaIcEEC2IS3_EEPKcRKS3_.exit23
  call void @_ZNSt7__cxx1112basic_stringIcSt11char_traitsIcESaIcEED1Ev(ptr noundef nonnull align 8 dereferenceable(32) %3) #17
  call void @_ZNSaIcED1Ev(ptr noundef nonnull align 1 dereferenceable(1) %4) #17
  %26 = call i32 @llvm.umax.i32(i32 %19, i32 %24)
  %27 = load i8, ptr getelementptr inbounds (%class.V3Global, ptr @v3Global, i64 0, i32 22, i32 190), align 2
  %28 = and i8 %27, 1
  %.not = icmp eq i8 %28, 0
  br i1 %.not, label %37, label %.thread

29:                                               ; preds = %.noexc, %7
  %30 = landingpad { ptr, i32 }
          cleanup
  br label %.body

.body:                                            ; preds = %9, %29
  %eh.lpad-body = phi { ptr, i32 } [ %30, %29 ], [ %10, %9 ]
  call void @_ZNSaIcED1Ev(ptr noundef nonnull align 1 dereferenceable(1) %2) #17
  br label %40

31:                                               ; preds = %17, %12, %_ZNSt7__cxx1112basic_stringIcSt11char_traitsIcESaIcEEC2IS3_EEPKcRKS3_.exit
  %32 = landingpad { ptr, i32 }
          cleanup
  br label %38

33:                                               ; preds = %.noexc19, %20
  %34 = landingpad { ptr, i32 }
          cleanup
  br label %.body21

35:                                               ; preds = %_ZNSt7__cxx1112basic_stringIcSt11char_traitsIcESaIcEEC2IS3_EEPKcRKS3_.exit23
  %36 = landingpad { ptr, i32 }
          cleanup
  call void @_ZNSt7__cxx1112basic_stringIcSt11char_traitsIcESaIcEED1Ev(ptr noundef nonnull align 8 dereferenceable(32) %3) #17
  br label %.body21

.body21:                                          ; preds = %33, %22, %35
  %.pn = phi { ptr, i32 } [ %36, %35 ], [ %34, %33 ], [ %23, %22 ]
  call void @_ZNSaIcED1Ev(ptr noundef nonnull align 1 dereferenceable(1) %4) #17
  br label %38

.thread:                                          ; preds = %25
  store i32 %26, ptr @_ZZL5debugvE5level, align 4
  call void @_ZNSt7__cxx1112basic_stringIcSt11char_traitsIcESaIcEED1Ev(ptr noundef nonnull align 8 dereferenceable(32) %1) #17
  %.pre = load i32, ptr @_ZZL5debugvE5level, align 4
  br label %39

37:                                               ; preds = %25
  call void @_ZNSt7__cxx1112basic_stringIcSt11char_traitsIcESaIcEED1Ev(ptr noundef nonnull align 8 dereferenceable(32) %1) #17
  br label %39

38:                                               ; preds = %.body21, %31
  %.pn.pn = phi { ptr, i32 } [ %.pn, %.body21 ], [ %32, %31 ]
  call void @_ZNSt7__cxx1112basic_stringIcSt11char_traitsIcESaIcEED1Ev(ptr noundef nonnull align 8 dereferenceable(32) %1) #17
  br label %40

39:                                               ; preds = %0, %.thread, %37
  %.1 = phi i32 [ %26, %37 ], [ %.pre, %.thread ], [ %5, %0 ]
  ret i32 %.1

40:                                               ; preds = %38, %.body
  %.pn.pn.pn = phi { ptr, i32 } [ %.pn.pn, %38 ], [ %eh.lpad-body, %.body ]
  resume { ptr, i32 } %.pn.pn.pn
}